target datalayout = "e-m:e-p270:32:32-p271:32:32-p272:64:64-i64:64-i128:128-f80:128-n8:16:32:64-S128"
target triple = "x86_64-unknown-linux-gnu"

%class.b3AlignedObjectArray.5 = type <{ %class.b3AlignedAllocator.6, [3 x i8], i32, i32, [4 x i8], ptr, i8, [7 x i8] }>
%class.b3AlignedAllocator.6 = type { i8 }

; Function Attrs: mustprogress nounwind uwtable
define linkonce_odr dso_local noundef nonnull align 4 dereferenceable(4) ptr @_ZN20b3AlignedObjectArrayIjEixEi(ptr noundef nonnull align 8 dereferenceable(25) %this, i32 noundef %n) #3 comdat align 2 {
entry:
  %this.addr = alloca ptr, align 8
  %n.addr = alloca i32, align 4
  store ptr %this, ptr %this.addr, align 8
  store i32 %n, ptr %n.addr, align 4
  %this1 = load ptr, ptr %this.addr, align 8
  %m_data = getelementptr inbounds %class.b3AlignedObjectArray.5, ptr %this1, i32 0, i32 5
  %0 = load ptr, ptr %m_data, align 8
  %1 = load i32, ptr %n.addr, align 4
  %idxprom = sext i32 %1 to i64
  %arrayidx = getelementptr inbounds i32, ptr %0, i64 %idxprom
  ret ptr %arrayidx
}

; Function Attrs: mustprogress uwtable
define dso_local void @_ZN14b3PrefixScanCL11executeHostER20b3AlignedObjectArrayIjES2_iPj(ptr noundef nonnull align 8 dereferenceable(48) %this, ptr noundef nonnull align 8 dereferenceable(25) %src, ptr noundef nonnull align 8 dereferenceable(25) %dst, i32 noundef %n, ptr noundef %sum) #0 align 2 {
entry:
  %this.addr = alloca ptr, align 8
  %src.addr = alloca ptr, align 8
  %dst.addr = alloca ptr, align 8
  %n.addr = alloca i32, align 4
  %sum.addr = alloca ptr, align 8
  %s = alloca i32, align 4
  %i = alloca i32, align 4
  store ptr %this, ptr %this.addr, align 8
  store ptr %src, ptr %src.addr, align 8
  store ptr %dst, ptr %dst.addr, align 8
  store i32 %n, ptr %n.addr, align 4
  store ptr %sum, ptr %sum.addr, align 8
  store i32 0, ptr %s, align 4
  store i32 0, ptr %i, align 4
  br label %for.cond

for.cond:                                         ; preds = %for.inc, %entry
  %0 = load i32, ptr %i, align 4
  %1 = load i32, ptr %n.addr, align 4
  %cmp = icmp slt i32 %0, %1
  br i1 %cmp, label %for.body, label %for.end

for.body:                                         ; preds = %for.cond
  %2 = load i32, ptr %s, align 4
  %3 = load ptr, ptr %dst.addr, align 8
  %4 = load i32, ptr %i, align 4
  %call = call noundef nonnull align 4 dereferenceable(4) ptr @_ZN20b3AlignedObjectArrayIjEixEi(ptr noundef nonnull align 8 dereferenceable(25) %3, i32 noundef %4)
  store i32 %2, ptr %call, align 4
  %5 = load ptr, ptr %src.addr, align 8
  %6 = load i32, ptr %i, align 4
  %call2 = call noundef nonnull align 4 dereferenceable(4) ptr @_ZN20b3AlignedObjectArrayIjEixEi(ptr noundef nonnull align 8 dereferenceable(25) %5, i32 noundef %6)
  %7 = load i32, ptr %call2, align 4
  %8 = load i32, ptr %s, align 4
  %add = add i32 %8, %7
  store i32 %add, ptr %s, align 4
  br label %for.inc

for.inc:                                          ; preds = %for.body
  %9 = load i32, ptr %i, align 4
  %inc = add nsw i32 %9, 1
  store i32 %inc, ptr %i, align 4
  br label %for.cond, !llvm.loop !7

for.end:                                          ; preds = %for.cond
  %10 = load ptr, ptr %sum.addr, align 8
  %tobool = icmp ne ptr %10, null
  br i1 %tobool, label %if.then, label %if.end

if.then:                                          ; preds = %for.end
  %11 = load ptr, ptr %dst.addr, align 8
  %12 = load i32, ptr %n.addr, align 4
  %sub = sub nsw i32 %12, 1
  %call3 = call noundef nonnull align 4 dereferenceable(4) ptr @_ZN20b3AlignedObjectArrayIjEixEi(ptr noundef nonnull align 8 dereferenceable(25) %11, i32 noundef %sub)
  %13 = load i32, ptr %call3, align 4
  %14 = load ptr, ptr %sum.addr, align 8
  store i32 %13, ptr %14, align 4
  br label %if.end

if.end:                                           ; preds = %if.then, %for.end
  ret void
}