; Function Attrs: mustprogress nofree norecurse nosync nounwind memory(readwrite, inaccessiblemem: none) uwtable
define dso_local void @_ZN14b3PrefixScanCL11executeHostER20b3AlignedObjectArrayIjES2_iPj(ptr nocapture noundef nonnull readnone align 8 dereferenceable(48) %this, ptr nocapture noundef nonnull readonly align 8 dereferenceable(25) %src, ptr nocapture noundef nonnull readonly align 8 dereferenceable(25) %dst, i32 noundef %n, ptr noundef writeonly %sum) local_unnamed_addr #7 align 2 {
entry:
  %cmp14 = icmp sgt i32 %n, 0
  br i1 %cmp14, label %for.body.lr.ph, label %for.end

for.body.lr.ph:                                   ; preds = %entry
  %m_data.i = getelementptr inbounds i8, ptr %dst, i64 16
  %m_data.i8 = getelementptr inbounds i8, ptr %src, i64 16
  %wide.trip.count = zext nneg i32 %n to i64
  br label %for.body

for.body:                                         ; preds = %for.body.lr.ph, %for.body
  %indvars.iv = phi i64 [ 0, %for.body.lr.ph ], [ %indvars.iv.next, %for.body ]
  %s.015 = phi i32 [ 0, %for.body.lr.ph ], [ %add, %for.body ]
  %0 = load ptr, ptr %m_data.i, align 8
  %arrayidx.i = getelementptr inbounds i32, ptr %0, i64 %indvars.iv
  store i32 %s.015, ptr %arrayidx.i, align 4
  %1 = load ptr, ptr %m_data.i8, align 8
  %arrayidx.i10 = getelementptr inbounds i32, ptr %1, i64 %indvars.iv
  %2 = load i32, ptr %arrayidx.i10, align 4
  %add = add i32 %2, %s.015
  %indvars.iv.next = add nuw nsw i64 %indvars.iv, 1
  %exitcond.not = icmp eq i64 %indvars.iv.next, %wide.trip.count
  br i1 %exitcond.not, label %for.end, label %for.body, !llvm.loop !8

for.end:                                          ; preds = %for.body, %entry
  %tobool.not = icmp eq ptr %sum, null
  br i1 %tobool.not, label %if.end, label %if.then

if.then:                                          ; preds = %for.end
  %m_data.i11 = getelementptr inbounds i8, ptr %dst, i64 16
  %3 = load ptr, ptr %m_data.i11, align 8
  %4 = sext i32 %n to i64
  %5 = getelementptr i32, ptr %3, i64 %4
  %arrayidx.i13 = getelementptr i8, ptr %5, i64 -4
  %6 = load i32, ptr %arrayidx.i13, align 4
  store i32 %6, ptr %sum, align 4
  br label %if.end

if.end:                                           ; preds = %if.then, %for.end
  ret void
}